; Function Attrs: mustprogress uwtable
define void @_ZN6google8protobuf2io18StringOutputStream6BackUpEi(ptr nocapture noundef nonnull readonly align 8 dereferenceable(16) %this, i32 noundef %count) unnamed_addr #5 align 2 personality ptr @__gxx_personality_v0 {
entry:
  %ref.tmp = alloca %"class.absl::lts_20230802::log_internal::LogMessageFatal", align 8
  %ref.tmp7 = alloca %"class.absl::lts_20230802::log_internal::LogMessageFatal", align 8
  %ref.tmp27 = alloca %"class.absl::lts_20230802::log_internal::LogMessageFatal", align 8
  %cmp.not.i.i = icmp slt i32 %count, 0
  br i1 %cmp.not.i.i, label %while.body, label %while.end

while.body:                                       ; preds = %entry
  %conv.i.i = sext i32 %count to i64
  %call.i.i = tail call noundef nonnull ptr @_ZN4absl12lts_2023080212log_internal17MakeCheckOpStringIllEEPNSt7__cxx1112basic_stringIcSt11char_traitsIcESaIcEEET_T0_PKc(i64 noundef %conv.i.i, i64 noundef 0, ptr noundef nonnull @.str.4)
  %call4 = tail call { i64, ptr } @_ZNKSt7__cxx1112basic_stringIcSt11char_traitsIcESaIcEEcvSt17basic_string_viewIcS2_EEv(ptr noundef nonnull align 8 dereferenceable(32) %call.i.i) #25
  %0 = extractvalue { i64, ptr } %call4, 0
  %1 = extractvalue { i64, ptr } %call4, 1
  call void @_ZN4absl12lts_2023080212log_internal15LogMessageFatalC1EPKciSt17basic_string_viewIcSt11char_traitsIcEE(ptr noundef nonnull align 8 dereferenceable(16) %ref.tmp, ptr noundef nonnull @.str.1, i32 noundef 150, i64 %0, ptr %1) #26
  call void @_ZN4absl12lts_2023080212log_internal15LogMessageFatalD1Ev(ptr noundef nonnull align 8 dereferenceable(16) %ref.tmp) #27
  unreachable

while.end:                                        ; preds = %entry
  %target_ = getelementptr inbounds i8, ptr %this, i64 8
  %2 = load ptr, ptr %target_, align 8
  %cmp.not = icmp eq ptr %2, null
  br i1 %cmp.not, label %cond.false, label %while.cond16

cond.false:                                       ; preds = %while.end
  call void @_ZN4absl12lts_2023080212log_internal15LogMessageFatalC1EPKciSt17basic_string_viewIcSt11char_traitsIcEE(ptr noundef nonnull align 8 dereferenceable(16) %ref.tmp7, ptr noundef nonnull @.str.1, i32 noundef 151, i64 15, ptr nonnull @.str.6) #26
  call void @_ZN4absl12lts_2023080212log_internal15LogMessageFatalD1Ev(ptr noundef nonnull align 8 dereferenceable(16) %ref.tmp7) #27
  unreachable

while.cond16:                                     ; preds = %while.end
  %conv = zext nneg i32 %count to i64
  %call22 = tail call noundef i64 @_ZNKSt7__cxx1112basic_stringIcSt11char_traitsIcESaIcEE4sizeEv(ptr noundef nonnull align 8 dereferenceable(32) %2) #25
  %cmp.not.i = icmp ult i64 %call22, %conv
  br i1 %cmp.not.i, label %while.body26, label %while.end33

while.body26:                                     ; preds = %while.cond16
  %call.i = tail call noundef nonnull ptr @_ZN4absl12lts_2023080212log_internal17MakeCheckOpStringImmEEPNSt7__cxx1112basic_stringIcSt11char_traitsIcESaIcEEET_T0_PKc(i64 noundef %conv, i64 noundef %call22, ptr noundef nonnull @.str.7)
  %call29 = tail call { i64, ptr } @_ZNKSt7__cxx1112basic_stringIcSt11char_traitsIcESaIcEEcvSt17basic_string_viewIcS2_EEv(ptr noundef nonnull align 8 dereferenceable(32) %call.i) #25
  %3 = extractvalue { i64, ptr } %call29, 0
  %4 = extractvalue { i64, ptr } %call29, 1
  call void @_ZN4absl12lts_2023080212log_internal15LogMessageFatalC1EPKciSt17basic_string_viewIcSt11char_traitsIcEE(ptr noundef nonnull align 8 dereferenceable(16) %ref.tmp27, ptr noundef nonnull @.str.1, i32 noundef 152, i64 %3, ptr %4) #26
  call void @_ZN4absl12lts_2023080212log_internal15LogMessageFatalD1Ev(ptr noundef nonnull align 8 dereferenceable(16) %ref.tmp27) #27
  unreachable

while.end33:                                      ; preds = %while.cond16
  %5 = load ptr, ptr %target_, align 8
  %call36 = tail call noundef i64 @_ZNKSt7__cxx1112basic_stringIcSt11char_traitsIcESaIcEE4sizeEv(ptr noundef nonnull align 8 dereferenceable(32) %5) #25
  %sub = sub i64 %call36, %conv
  tail call void @_ZNSt7__cxx1112basic_stringIcSt11char_traitsIcESaIcEE6resizeEm(ptr noundef nonnull align 8 dereferenceable(32) %5, i64 noundef %sub)
  ret void
}